; Function Attrs: nounwind uwtable
define i32 @hwloc_get_proc_membind(ptr noundef %0, i32 noundef %1, ptr noundef %2, ptr noundef %3, i32 noundef %4) local_unnamed_addr #0 {
  %6 = and i32 %4, 32
  %.not = icmp eq i32 %6, 0
  br i1 %.not, label %17, label %7

7:                                                ; preds = %5
  %.not.i = icmp ult i32 %4, 64
  br i1 %.not.i, label %10, label %8

8:                                                ; preds = %7
  %9 = tail call ptr @__errno_location() #12
  store i32 22, ptr %9, align 4, !tbaa !3
  br label %hwloc_get_proc_membind_by_nodeset.exit

10:                                               ; preds = %7
  %11 = getelementptr inbounds nuw i8, ptr %0, i64 592
  %12 = load ptr, ptr %11, align 8, !tbaa !60
  %.not9.i = icmp eq ptr %12, null
  br i1 %.not9.i, label %15, label %13

13:                                               ; preds = %10
  %14 = tail call i32 %12(ptr noundef nonnull %0, i32 noundef %1, ptr noundef %2, ptr noundef %3, i32 noundef %4) #14
  br label %hwloc_get_proc_membind_by_nodeset.exit

15:                                               ; preds = %10
  %16 = tail call ptr @__errno_location() #12
  store i32 38, ptr %16, align 4, !tbaa !3
  br label %hwloc_get_proc_membind_by_nodeset.exit

17:                                               ; preds = %5
  %18 = tail call noalias ptr @hwloc_bitmap_alloc() #14
  %.not.i17 = icmp ult i32 %4, 64
  br i1 %.not.i17, label %19, label %hwloc_cpuset_from_nodeset.exit.sink.split

19:                                               ; preds = %17
  %20 = getelementptr inbounds nuw i8, ptr %0, i64 592
  %21 = load ptr, ptr %20, align 8, !tbaa !60
  %.not9.i19 = icmp eq ptr %21, null
  br i1 %.not9.i19, label %hwloc_cpuset_from_nodeset.exit.sink.split, label %hwloc_get_proc_membind_by_nodeset.exit20

hwloc_get_proc_membind_by_nodeset.exit20:         ; preds = %19
  %22 = tail call i32 %21(ptr noundef nonnull %0, i32 noundef %1, ptr noundef %18, ptr noundef %3, i32 noundef %4) #14
  %.not16 = icmp eq i32 %22, 0
  br i1 %.not16, label %23, label %hwloc_cpuset_from_nodeset.exit

23:                                               ; preds = %hwloc_get_proc_membind_by_nodeset.exit20
  %24 = tail call i32 @hwloc_get_type_depth(ptr noundef nonnull %0, i32 noundef 14) #14
  tail call void @hwloc_bitmap_zero(ptr noundef %2) #14
  br label %25

25:                                               ; preds = %.backedge, %23
  %.0.i21 = phi ptr [ null, %23 ], [ %.0.i.i, %.backedge ]
  %.not.i.i = icmp eq ptr %.0.i21, null
  br i1 %.not.i.i, label %26, label %28

26:                                               ; preds = %25
  %27 = tail call ptr @hwloc_get_obj_by_depth(ptr noundef nonnull readonly %0, i32 noundef %24, i32 noundef 0) #13
  br label %hwloc_get_next_obj_by_depth.exit.i

28:                                               ; preds = %25
  %29 = getelementptr inbounds nuw i8, ptr %.0.i21, i64 48
  %30 = load i32, ptr %29, align 8, !tbaa !44
  %.not7.i.i = icmp eq i32 %30, %24
  br i1 %.not7.i.i, label %31, label %hwloc_cpuset_from_nodeset.exit

31:                                               ; preds = %28
  %32 = getelementptr inbounds nuw i8, ptr %.0.i21, i64 56
  %33 = load ptr, ptr %32, align 8, !tbaa !50
  br label %hwloc_get_next_obj_by_depth.exit.i

hwloc_get_next_obj_by_depth.exit.i:               ; preds = %31, %26
  %.0.i.i = phi ptr [ %33, %31 ], [ %27, %26 ]
  %.not.i22 = icmp eq ptr %.0.i.i, null
  br i1 %.not.i22, label %hwloc_cpuset_from_nodeset.exit, label %34

34:                                               ; preds = %hwloc_get_next_obj_by_depth.exit.i
  %35 = getelementptr inbounds nuw i8, ptr %.0.i.i, i64 16
  %36 = load i32, ptr %35, align 8, !tbaa !54
  %37 = tail call i32 @hwloc_bitmap_isset(ptr noundef readonly %18, i32 noundef %36) #13
  %.not12.i = icmp eq i32 %37, 0
  br i1 %.not12.i, label %.backedge, label %38

38:                                               ; preds = %34
  %39 = getelementptr inbounds nuw i8, ptr %.0.i.i, i64 184
  %40 = load ptr, ptr %39, align 8, !tbaa !51
  %41 = tail call i32 @hwloc_bitmap_or(ptr noundef %2, ptr noundef %2, ptr noundef %40) #14
  %42 = icmp slt i32 %41, 0
  br i1 %42, label %hwloc_cpuset_from_nodeset.exit, label %.backedge

.backedge:                                        ; preds = %38, %34
  br label %25, !llvm.loop !56

hwloc_cpuset_from_nodeset.exit.sink.split:        ; preds = %19, %17
  %.sink = phi i32 [ 22, %17 ], [ 38, %19 ]
  %43 = tail call ptr @__errno_location() #12
  store i32 %.sink, ptr %43, align 4, !tbaa !3
  br label %hwloc_cpuset_from_nodeset.exit

hwloc_cpuset_from_nodeset.exit:                   ; preds = %38, %hwloc_get_next_obj_by_depth.exit.i, %28, %hwloc_cpuset_from_nodeset.exit.sink.split, %hwloc_get_proc_membind_by_nodeset.exit20
  %.0.i1825 = phi i32 [ %22, %hwloc_get_proc_membind_by_nodeset.exit20 ], [ -1, %hwloc_cpuset_from_nodeset.exit.sink.split ], [ 0, %28 ], [ 0, %hwloc_get_next_obj_by_depth.exit.i ], [ 0, %38 ]
  tail call void @hwloc_bitmap_free(ptr noundef %18) #14
  br label %hwloc_get_proc_membind_by_nodeset.exit

hwloc_get_proc_membind_by_nodeset.exit:           ; preds = %15, %13, %8, %hwloc_cpuset_from_nodeset.exit
  %.0 = phi i32 [ %.0.i1825, %hwloc_cpuset_from_nodeset.exit ], [ -1, %8 ], [ %14, %13 ], [ -1, %15 ]
  ret i32 %.0
}